; Function Attrs: mustprogress nofree norecurse nosync nounwind willreturn memory(argmem: write) uwtable
define internal void @cdcon(ptr noundef writeonly captures(none) initializes((144, 273), (280, 288), (304, 328)) %0) #11 {
  %2 = getelementptr inbounds nuw i8, ptr %0, i64 144
  %3 = getelementptr inbounds nuw i8, ptr %0, i64 280
  store ptr null, ptr %3, align 8, !tbaa !194
  %4 = getelementptr inbounds nuw i8, ptr %0, i64 304
  tail call void @llvm.memset.p0.i64(ptr noundef nonnull align 8 dereferenceable(129) %2, i8 0, i64 129, i1 false)
  tail call void @llvm.memset.p0.i64(ptr noundef nonnull align 8 dereferenceable(24) %4, i8 0, i64 24, i1 false)
  ret void
}